; Function Attrs: mustprogress uwtable
define noundef double @_ZNK8QuantLib35BinomialProbabilityOfAtLeastNEventsclESt6vectorIdSaIdEE(ptr nocapture noundef nonnull readonly align 4 dereferenceable(4) %this, ptr nocapture noundef readonly %p) local_unnamed_addr #3 align 2 {
entry:
  %binomial.i = alloca %"class.QuantLib::CumulativeBinomialDistribution", align 8
  %0 = load i32, ptr %this, align 4, !tbaa !36
  call void @llvm.lifetime.start.p0(i64 16, ptr nonnull %binomial.i) #20
  %1 = load ptr, ptr %p, align 8, !tbaa !3
  %2 = load double, ptr %1, align 8, !tbaa !8
  %_M_finish.i.i = getelementptr inbounds nuw i8, ptr %p, i64 8
  %3 = load ptr, ptr %_M_finish.i.i, align 8, !tbaa !10
  %sub.ptr.lhs.cast.i.i = ptrtoint ptr %3 to i64
  %sub.ptr.rhs.cast.i.i = ptrtoint ptr %1 to i64
  %sub.ptr.sub.i.i = sub i64 %sub.ptr.lhs.cast.i.i, %sub.ptr.rhs.cast.i.i
  %sub.ptr.div.i.i = ashr exact i64 %sub.ptr.sub.i.i, 3
  call void @_ZN8QuantLib30CumulativeBinomialDistributionC2Edm(ptr noundef nonnull align 8 dereferenceable(16) %binomial.i, double noundef %2, i64 noundef %sub.ptr.div.i.i)
  %sub.i = add nsw i32 %0, -1
  %conv.i = sext i32 %sub.i to i64
  %4 = load i64, ptr %binomial.i, align 8, !tbaa !23
  %cmp.not.i.i = icmp ugt i64 %4, %conv.i
  br i1 %cmp.not.i.i, label %if.else.i.i, label %_ZN8QuantLib8LossDist35binomialProbabilityOfAtLeastNEventsEiRSt6vectorIdSaIdEE.exit

if.else.i.i:                                      ; preds = %entry
  %add.i.i = add nuw nsw i64 %conv.i, 1
  %conv.i.i = uitofp i64 %add.i.i to double
  %sub.i.i = sub nuw i64 %4, %conv.i
  %conv3.i.i = uitofp i64 %sub.i.i to double
  %p_.i.i = getelementptr inbounds nuw i8, ptr %binomial.i, i64 8
  %5 = load double, ptr %p_.i.i, align 8, !tbaa !25
  %call.i.i = call noundef double @_ZN8QuantLib22incompleteBetaFunctionEddddi(double noundef %conv.i.i, double noundef %conv3.i.i, double noundef %5, double noundef 0x3C9CD2B297D889BC, i32 noundef 100)
  %sub4.i.i = fsub double 1.000000e+00, %call.i.i
  br label %_ZN8QuantLib8LossDist35binomialProbabilityOfAtLeastNEventsEiRSt6vectorIdSaIdEE.exit

_ZN8QuantLib8LossDist35binomialProbabilityOfAtLeastNEventsEiRSt6vectorIdSaIdEE.exit: ; preds = %entry, %if.else.i.i
  %retval.0.i.i = phi double [ %sub4.i.i, %if.else.i.i ], [ 1.000000e+00, %entry ]
  %sub3.i = fsub double 1.000000e+00, %retval.0.i.i
  call void @llvm.lifetime.end.p0(i64 16, ptr nonnull %binomial.i) #20
  ret double %sub3.i
}